target datalayout = "e-m:e-p270:32:32-p271:32:32-p272:64:64-i64:64-i128:128-f80:128-n8:16:32:64-S128"
target triple = "x86_64-pc-linux-gnu"

@.str.330 = private unnamed_addr constant [17 x i8] c"Ethernet OAM PDU\00", align 1
@.str.331 = private unnamed_addr constant [7 x i8] c"OAMPDU\00", align 1
@.str.332 = private unnamed_addr constant [7 x i8] c"oampdu\00", align 1
@proto_oampdu = internal global i32 0, align 4
@oampdu_handle = internal global ptr null, align 8

; Function Attrs: null_pointer_is_valid sspstrong uwtable
define hidden void @proto_register_oampdu() #0 {
  %1 = alloca ptr, align 8
  call void @llvm.lifetime.start.p0(i64 8, ptr %1) #6
  %2 = call i32 @proto_register_protocol(ptr noundef @.str.330, ptr noundef @.str.331, ptr noundef @.str.332)
  store i32 %2, ptr @proto_oampdu, align 4
  %3 = load i32, ptr @proto_oampdu, align 4
  call void @proto_register_field_array(i32 noundef %3, ptr noundef @proto_register_oampdu.hf, i32 noundef 159)
  call void @proto_register_subtree_array(ptr noundef @proto_register_oampdu.ett, i32 noundef 22)
  %4 = load i32, ptr @proto_oampdu, align 4
  %5 = call ptr @expert_register_protocol(i32 noundef %4)
  store ptr %5, ptr %1, align 8
  %6 = load ptr, ptr %1, align 8
  call void @expert_register_field_array(ptr noundef %6, ptr noundef @proto_register_oampdu.ei, i32 noundef 2)
  %7 = load i32, ptr @proto_oampdu, align 4
  %8 = call ptr @register_dissector(ptr noundef @.str.332, ptr noundef @dissect_oampdu, i32 noundef %7)
  store ptr %8, ptr @oampdu_handle, align 8
  call void @llvm.lifetime.end.p0(i64 8, ptr %1) #6
  ret void
}